target datalayout = "e-m:e-p270:32:32-p271:32:32-p272:64:64-i64:64-i128:128-f80:128-n8:16:32:64-S128"
target triple = "x86_64-pc-linux-gnu"

%struct.jit_State = type { %struct.GCtrace, ptr, ptr, ptr, ptr, ptr, ptr, i32, i32, i32, i8, i8, %struct.IRType1, i8, %struct.FoldState, ptr, i32, i32, i32, i32, i32, i32, i32, [1 x i32], [5 x %union.TValue], [3 x %union.TValue], ptr, i32, i32, i32, i32, ptr, ptr, i32, i32, i8, ptr, i32, i32, i16, [101 x i16], [258 x i32], [15 x i32], [16 x ptr], [64 x %struct.HotPenalty], i32, [16 x %struct.BPropEntry], i32, %struct.ScEvEntry, ptr, i32, i32, i32, ptr, i32, i32, ptr, ptr, ptr, i64, i64, %union.TValue, ptr, i32, i32 }
%struct.GCtrace = type { %struct.GCRef, i8, i8, i16, i32, i32, %struct.GCRef, ptr, i32, i32, ptr, ptr, %struct.GCRef, %struct.MRef, i32, i32, ptr, i32, i16, i16, i16, i16, i16, i16, i16, i8, i8, i8, i8 }
%struct.GCRef = type { i64 }
%struct.MRef = type { i64 }
%struct.IRType1 = type { i8 }
%struct.FoldState = type { %union.IRIns, [2 x %union.IRIns], [2 x %union.IRIns] }
%union.IRIns = type { %struct.GCRef }
%struct.HotPenalty = type { %struct.MRef, i16, i16 }
%struct.BPropEntry = type { i16, i16, i32 }
%struct.ScEvEntry = type { %struct.MRef, i16, i16, i16, i16, %struct.IRType1, i8 }
%union.TValue = type { i64 }
%struct.anon.1 = type { i16, i16, i16, i16 }
%struct.RecordIndex = type { %union.TValue, %union.TValue, %union.TValue, %union.TValue, ptr, ptr, i32, i32, i32, i32, i32, i32 }
%struct.GCtab = type { %struct.GCRef, i8, i8, i8, i8, %struct.MRef, %struct.GCRef, %struct.GCRef, %struct.MRef, i32, i32, %struct.MRef }
%struct.GCudata = type { %struct.GCRef, i8, i8, i8, i8, %struct.GCRef, i32, %struct.GCRef, i32 }

@.str = private unnamed_addr constant [23 x i8] c"copy of dead GC object\00", align 1

; Function Attrs: alwaysinline nounwind uwtable
define internal void @checklivetv(ptr noundef %0, ptr noundef %1, ptr noundef %2) #3 {
  %4 = alloca ptr, align 8
  %5 = alloca ptr, align 8
  %6 = alloca ptr, align 8
  store ptr %0, ptr %4, align 8, !tbaa !82
  store ptr %1, ptr %5, align 8, !tbaa !11
  store ptr %2, ptr %6, align 8, !tbaa !183
  ret void
}

; Function Attrs: alwaysinline nounwind uwtable
define internal void @lj_ir_set_(ptr noundef %0, i16 noundef zeroext %1, i16 noundef zeroext %2, i16 noundef zeroext %3) #3 {
  %5 = alloca ptr, align 8
  %6 = alloca i16, align 2
  %7 = alloca i16, align 2
  %8 = alloca i16, align 2
  store ptr %0, ptr %5, align 8, !tbaa !4
  store i16 %1, ptr %6, align 2, !tbaa !13
  store i16 %2, ptr %7, align 2, !tbaa !13
  store i16 %3, ptr %8, align 2, !tbaa !13
  %9 = load i16, ptr %6, align 2, !tbaa !13
  %10 = load ptr, ptr %5, align 8, !tbaa !4
  %11 = getelementptr inbounds nuw %struct.jit_State, ptr %10, i32 0, i32 14
  %12 = getelementptr inbounds nuw %struct.FoldState, ptr %11, i32 0, i32 0
  %13 = getelementptr inbounds nuw %struct.anon.1, ptr %12, i32 0, i32 2
  store i16 %9, ptr %13, align 4, !tbaa !15
  %14 = load i16, ptr %7, align 2, !tbaa !13
  %15 = load ptr, ptr %5, align 8, !tbaa !4
  %16 = getelementptr inbounds nuw %struct.jit_State, ptr %15, i32 0, i32 14
  %17 = getelementptr inbounds nuw %struct.FoldState, ptr %16, i32 0, i32 0
  %18 = getelementptr inbounds nuw %struct.anon.1, ptr %17, i32 0, i32 0
  store i16 %14, ptr %18, align 8, !tbaa !15
  %19 = load i16, ptr %8, align 2, !tbaa !13
  %20 = load ptr, ptr %5, align 8, !tbaa !4
  %21 = getelementptr inbounds nuw %struct.jit_State, ptr %20, i32 0, i32 14
  %22 = getelementptr inbounds nuw %struct.FoldState, ptr %21, i32 0, i32 0
  %23 = getelementptr inbounds nuw %struct.anon.1, ptr %22, i32 0, i32 1
  store i16 %19, ptr %23, align 2, !tbaa !15
  ret void
}

; Function Attrs: alwaysinline nounwind uwtable
define internal void @copyTV(ptr noundef %0, ptr noundef %1, ptr noundef %2) #3 {
  %4 = alloca ptr, align 8
  %5 = alloca ptr, align 8
  %6 = alloca ptr, align 8
  store ptr %0, ptr %4, align 8, !tbaa !82
  store ptr %1, ptr %5, align 8, !tbaa !11
  store ptr %2, ptr %6, align 8, !tbaa !11
  %7 = load ptr, ptr %5, align 8, !tbaa !11
  %8 = load ptr, ptr %6, align 8, !tbaa !11
  call void @llvm.memcpy.p0.p0.i64(ptr align 8 %7, ptr align 8 %8, i64 8, i1 false), !tbaa.struct !83
  %9 = load ptr, ptr %4, align 8, !tbaa !82
  %10 = load ptr, ptr %5, align 8, !tbaa !11
  call void @checklivetv(ptr noundef %9, ptr noundef %10, ptr noundef @.str)
  ret void
}

; Function Attrs: nounwind uwtable
define internal void @rec_mm_comp(ptr noundef %0, ptr noundef %1, i32 noundef %2) #0 {
  %4 = alloca ptr, align 8
  %5 = alloca ptr, align 8
  %6 = alloca i32, align 4
  %7 = alloca i32, align 4
  %8 = alloca ptr, align 8
  %9 = alloca i32, align 4
  %10 = alloca %union.TValue, align 8
  %11 = alloca i32, align 4
  %12 = alloca i32, align 4
  %13 = alloca i32, align 4
  store ptr %0, ptr %4, align 8, !tbaa !4
  store ptr %1, ptr %5, align 8, !tbaa !90
  store i32 %2, ptr %6, align 4, !tbaa !9
  %14 = load ptr, ptr %5, align 8, !tbaa !90
  %15 = getelementptr inbounds nuw %struct.RecordIndex, ptr %14, i32 0, i32 8
  %16 = load i32, ptr %15, align 8, !tbaa !99
  %17 = load ptr, ptr %5, align 8, !tbaa !90
  %18 = getelementptr inbounds nuw %struct.RecordIndex, ptr %17, i32 0, i32 6
  store i32 %16, ptr %18, align 8, !tbaa !56
  %19 = load ptr, ptr %4, align 8, !tbaa !4
  %20 = getelementptr inbounds nuw %struct.jit_State, ptr %19, i32 0, i32 2
  %21 = load ptr, ptr %20, align 8, !tbaa !51
  %22 = load ptr, ptr %5, align 8, !tbaa !90
  %23 = getelementptr inbounds nuw %struct.RecordIndex, ptr %22, i32 0, i32 0
  %24 = load ptr, ptr %5, align 8, !tbaa !90
  %25 = getelementptr inbounds nuw %struct.RecordIndex, ptr %24, i32 0, i32 2
  call void @copyTV(ptr noundef %21, ptr noundef %23, ptr noundef %25)
  br label %26

26:                                               ; preds = %3, %203
  call void @llvm.lifetime.start.p0(i64 4, ptr %7) #9
  %27 = load i32, ptr %6, align 4, !tbaa !9
  %28 = and i32 %27, 2
  %29 = icmp ne i32 %28, 0
  %30 = select i1 %29, i32 7, i32 6
  store i32 %30, ptr %7, align 4, !tbaa !9
  %31 = load ptr, ptr %4, align 8, !tbaa !4
  %32 = load ptr, ptr %5, align 8, !tbaa !90
  %33 = load i32, ptr %7, align 4, !tbaa !9
  %34 = call i32 @lj_record_mm_lookup(ptr noundef %31, ptr noundef %32, i32 noundef %33)
  %35 = icmp ne i32 %34, 0
  br i1 %35, label %36, label %156

36:                                               ; preds = %26
  call void @llvm.lifetime.start.p0(i64 8, ptr %8) #9
  call void @llvm.lifetime.start.p0(i64 4, ptr %9) #9
  %37 = load ptr, ptr %5, align 8, !tbaa !90
  %38 = getelementptr inbounds nuw %struct.RecordIndex, ptr %37, i32 0, i32 10
  %39 = load i32, ptr %38, align 8, !tbaa !59
  store i32 %39, ptr %9, align 4, !tbaa !9
  call void @llvm.lifetime.start.p0(i64 8, ptr %10) #9
  %40 = load ptr, ptr %4, align 8, !tbaa !4
  %41 = getelementptr inbounds nuw %struct.jit_State, ptr %40, i32 0, i32 2
  %42 = load ptr, ptr %41, align 8, !tbaa !51
  %43 = load ptr, ptr %5, align 8, !tbaa !90
  %44 = getelementptr inbounds nuw %struct.RecordIndex, ptr %43, i32 0, i32 3
  call void @copyTV(ptr noundef %42, ptr noundef %10, ptr noundef %44)
  %45 = load ptr, ptr %5, align 8, !tbaa !90
  %46 = getelementptr inbounds nuw %struct.RecordIndex, ptr %45, i32 0, i32 1
  store ptr %46, ptr %8, align 8, !tbaa !11
  %47 = load ptr, ptr %8, align 8, !tbaa !11
  %48 = load i64, ptr %47, align 8, !tbaa !15
  %49 = ashr i64 %48, 47
  %50 = trunc i64 %49 to i32
  %51 = icmp eq i32 %50, -12
  br i1 %51, label %52, label %83

52:                                               ; preds = %36
  %53 = load ptr, ptr %8, align 8, !tbaa !11
  %54 = getelementptr inbounds nuw %struct.GCRef, ptr %53, i32 0, i32 0
  %55 = load i64, ptr %54, align 8, !tbaa !15
  %56 = and i64 %55, 140737488355327
  %57 = inttoptr i64 %56 to ptr
  %58 = getelementptr inbounds nuw %struct.GCtab, ptr %57, i32 0, i32 7
  %59 = getelementptr inbounds nuw %struct.GCRef, ptr %58, i32 0, i32 0
  %60 = load i64, ptr %59, align 8, !tbaa !15
  %61 = inttoptr i64 %60 to ptr
  %62 = load ptr, ptr %5, align 8, !tbaa !90
  %63 = getelementptr inbounds nuw %struct.RecordIndex, ptr %62, i32 0, i32 4
  %64 = load ptr, ptr %63, align 8, !tbaa !95
  %65 = icmp eq ptr %61, %64
  br i1 %65, label %66, label %83

66:                                               ; preds = %52
  call void @llvm.lifetime.start.p0(i64 4, ptr %11) #9
  %67 = load ptr, ptr %4, align 8, !tbaa !4
  %68 = load ptr, ptr %5, align 8, !tbaa !90
  %69 = getelementptr inbounds nuw %struct.RecordIndex, ptr %68, i32 0, i32 7
  %70 = load i32, ptr %69, align 4, !tbaa !98
  %71 = trunc i32 %70 to i16
  call void @lj_ir_set_(ptr noundef %67, i16 noundef zeroext 17675, i16 noundef zeroext %71, i16 noundef zeroext 5)
  %72 = load ptr, ptr %4, align 8, !tbaa !4
  %73 = call i32 @lj_opt_fold(ptr noundef %72)
  store i32 %73, ptr %11, align 4, !tbaa !9
  %74 = load ptr, ptr %4, align 8, !tbaa !4
  %75 = load i32, ptr %11, align 4, !tbaa !9
  %76 = trunc i32 %75 to i16
  %77 = load ptr, ptr %5, align 8, !tbaa !90
  %78 = getelementptr inbounds nuw %struct.RecordIndex, ptr %77, i32 0, i32 9
  %79 = load i32, ptr %78, align 4, !tbaa !94
  %80 = trunc i32 %79 to i16
  call void @lj_ir_set_(ptr noundef %74, i16 noundef zeroext 2187, i16 noundef zeroext %76, i16 noundef zeroext %80)
  %81 = load ptr, ptr %4, align 8, !tbaa !4
  %82 = call i32 @lj_opt_fold(ptr noundef %81)
  call void @llvm.lifetime.end.p0(i64 4, ptr %11) #9
  br label %150

83:                                               ; preds = %52, %36
  %84 = load ptr, ptr %8, align 8, !tbaa !11
  %85 = load i64, ptr %84, align 8, !tbaa !15
  %86 = ashr i64 %85, 47
  %87 = trunc i64 %86 to i32
  %88 = icmp eq i32 %87, -13
  br i1 %88, label %89, label %120

89:                                               ; preds = %83
  %90 = load ptr, ptr %8, align 8, !tbaa !11
  %91 = getelementptr inbounds nuw %struct.GCRef, ptr %90, i32 0, i32 0
  %92 = load i64, ptr %91, align 8, !tbaa !15
  %93 = and i64 %92, 140737488355327
  %94 = inttoptr i64 %93 to ptr
  %95 = getelementptr inbounds nuw %struct.GCudata, ptr %94, i32 0, i32 7
  %96 = getelementptr inbounds nuw %struct.GCRef, ptr %95, i32 0, i32 0
  %97 = load i64, ptr %96, align 8, !tbaa !15
  %98 = inttoptr i64 %97 to ptr
  %99 = load ptr, ptr %5, align 8, !tbaa !90
  %100 = getelementptr inbounds nuw %struct.RecordIndex, ptr %99, i32 0, i32 4
  %101 = load ptr, ptr %100, align 8, !tbaa !95
  %102 = icmp eq ptr %98, %101
  br i1 %102, label %103, label %120

103:                                              ; preds = %89
  call void @llvm.lifetime.start.p0(i64 4, ptr %12) #9
  %104 = load ptr, ptr %4, align 8, !tbaa !4
  %105 = load ptr, ptr %5, align 8, !tbaa !90
  %106 = getelementptr inbounds nuw %struct.RecordIndex, ptr %105, i32 0, i32 7
  %107 = load i32, ptr %106, align 4, !tbaa !98
  %108 = trunc i32 %107 to i16
  call void @lj_ir_set_(ptr noundef %104, i16 noundef zeroext 17675, i16 noundef zeroext %108, i16 noundef zeroext 11)
  %109 = load ptr, ptr %4, align 8, !tbaa !4
  %110 = call i32 @lj_opt_fold(ptr noundef %109)
  store i32 %110, ptr %12, align 4, !tbaa !9
  %111 = load ptr, ptr %4, align 8, !tbaa !4
  %112 = load i32, ptr %12, align 4, !tbaa !9
  %113 = trunc i32 %112 to i16
  %114 = load ptr, ptr %5, align 8, !tbaa !90
  %115 = getelementptr inbounds nuw %struct.RecordIndex, ptr %114, i32 0, i32 9
  %116 = load i32, ptr %115, align 4, !tbaa !94
  %117 = trunc i32 %116 to i16
  call void @lj_ir_set_(ptr noundef %111, i16 noundef zeroext 2187, i16 noundef zeroext %113, i16 noundef zeroext %117)
  %118 = load ptr, ptr %4, align 8, !tbaa !4
  %119 = call i32 @lj_opt_fold(ptr noundef %118)
  call void @llvm.lifetime.end.p0(i64 4, ptr %12) #9
  br label %149

120:                                              ; preds = %89, %83
  %121 = load ptr, ptr %5, align 8, !tbaa !90
  %122 = getelementptr inbounds nuw %struct.RecordIndex, ptr %121, i32 0, i32 7
  %123 = load i32, ptr %122, align 4, !tbaa !98
  %124 = load ptr, ptr %5, align 8, !tbaa !90
  %125 = getelementptr inbounds nuw %struct.RecordIndex, ptr %124, i32 0, i32 6
  store i32 %123, ptr %125, align 8, !tbaa !56
  %126 = load ptr, ptr %4, align 8, !tbaa !4
  %127 = getelementptr inbounds nuw %struct.jit_State, ptr %126, i32 0, i32 2
  %128 = load ptr, ptr %127, align 8, !tbaa !51
  %129 = load ptr, ptr %5, align 8, !tbaa !90
  %130 = getelementptr inbounds nuw %struct.RecordIndex, ptr %129, i32 0, i32 0
  %131 = load ptr, ptr %8, align 8, !tbaa !11
  call void @copyTV(ptr noundef %128, ptr noundef %130, ptr noundef %131)
  %132 = load ptr, ptr %4, align 8, !tbaa !4
  %133 = load ptr, ptr %5, align 8, !tbaa !90
  %134 = load i32, ptr %7, align 4, !tbaa !9
  %135 = call i32 @lj_record_mm_lookup(ptr noundef %132, ptr noundef %133, i32 noundef %134)
  %136 = icmp ne i32 %135, 0
  br i1 %136, label %137, label %147

137:                                              ; preds = %120
  %138 = load ptr, ptr %4, align 8, !tbaa !4
  %139 = load i32, ptr %9, align 4, !tbaa !9
  %140 = load ptr, ptr %5, align 8, !tbaa !90
  %141 = getelementptr inbounds nuw %struct.RecordIndex, ptr %140, i32 0, i32 10
  %142 = load i32, ptr %141, align 8, !tbaa !59
  %143 = load ptr, ptr %5, align 8, !tbaa !90
  %144 = getelementptr inbounds nuw %struct.RecordIndex, ptr %143, i32 0, i32 3
  %145 = call i32 @lj_record_objcmp(ptr noundef %138, i32 noundef %139, i32 noundef %142, ptr noundef %10, ptr noundef %144)
  %146 = icmp ne i32 %145, 0
  br i1 %146, label %147, label %148

147:                                              ; preds = %137, %120
  store i32 4, ptr %13, align 4
  br label %154

148:                                              ; preds = %137
  br label %149

149:                                              ; preds = %148, %103
  br label %150

150:                                              ; preds = %149, %66
  %151 = load ptr, ptr %4, align 8, !tbaa !4
  %152 = load ptr, ptr %5, align 8, !tbaa !90
  %153 = load i32, ptr %6, align 4, !tbaa !9
  call void @rec_mm_callcomp(ptr noundef %151, ptr noundef %152, i32 noundef %153)
  store i32 1, ptr %13, align 4
  br label %154

154:                                              ; preds = %147, %150
  call void @llvm.lifetime.end.p0(i64 8, ptr %10) #9
  call void @llvm.lifetime.end.p0(i64 4, ptr %9) #9
  call void @llvm.lifetime.end.p0(i64 8, ptr %8) #9
  %155 = load i32, ptr %13, align 4
  switch i32 %155, label %201 [
    i32 4, label %157
  ]

156:                                              ; preds = %26
  br label %157

157:                                              ; preds = %156, %154
  %158 = load i32, ptr %6, align 4, !tbaa !9
  %159 = and i32 %158, 2
  %160 = icmp ne i32 %159, 0
  br i1 %160, label %162, label %161

161:                                              ; preds = %157
  store i32 3, ptr %13, align 4
  br label %201

162:                                              ; preds = %157
  %163 = load ptr, ptr %5, align 8, !tbaa !90
  %164 = getelementptr inbounds nuw %struct.RecordIndex, ptr %163, i32 0, i32 7
  %165 = load i32, ptr %164, align 4, !tbaa !98
  %166 = load ptr, ptr %5, align 8, !tbaa !90
  %167 = getelementptr inbounds nuw %struct.RecordIndex, ptr %166, i32 0, i32 6
  store i32 %165, ptr %167, align 8, !tbaa !56
  %168 = load ptr, ptr %5, align 8, !tbaa !90
  %169 = getelementptr inbounds nuw %struct.RecordIndex, ptr %168, i32 0, i32 8
  %170 = load i32, ptr %169, align 8, !tbaa !99
  %171 = load ptr, ptr %5, align 8, !tbaa !90
  %172 = getelementptr inbounds nuw %struct.RecordIndex, ptr %171, i32 0, i32 7
  store i32 %170, ptr %172, align 4, !tbaa !98
  %173 = load ptr, ptr %5, align 8, !tbaa !90
  %174 = getelementptr inbounds nuw %struct.RecordIndex, ptr %173, i32 0, i32 6
  %175 = load i32, ptr %174, align 8, !tbaa !56
  %176 = load ptr, ptr %5, align 8, !tbaa !90
  %177 = getelementptr inbounds nuw %struct.RecordIndex, ptr %176, i32 0, i32 8
  store i32 %175, ptr %177, align 8, !tbaa !99
  %178 = load ptr, ptr %4, align 8, !tbaa !4
  %179 = getelementptr inbounds nuw %struct.jit_State, ptr %178, i32 0, i32 2
  %180 = load ptr, ptr %179, align 8, !tbaa !51
  %181 = load ptr, ptr %5, align 8, !tbaa !90
  %182 = getelementptr inbounds nuw %struct.RecordIndex, ptr %181, i32 0, i32 0
  %183 = load ptr, ptr %5, align 8, !tbaa !90
  %184 = getelementptr inbounds nuw %struct.RecordIndex, ptr %183, i32 0, i32 1
  call void @copyTV(ptr noundef %180, ptr noundef %182, ptr noundef %184)
  %185 = load ptr, ptr %4, align 8, !tbaa !4
  %186 = getelementptr inbounds nuw %struct.jit_State, ptr %185, i32 0, i32 2
  %187 = load ptr, ptr %186, align 8, !tbaa !51
  %188 = load ptr, ptr %5, align 8, !tbaa !90
  %189 = getelementptr inbounds nuw %struct.RecordIndex, ptr %188, i32 0, i32 1
  %190 = load ptr, ptr %5, align 8, !tbaa !90
  %191 = getelementptr inbounds nuw %struct.RecordIndex, ptr %190, i32 0, i32 2
  call void @copyTV(ptr noundef %187, ptr noundef %189, ptr noundef %191)
  %192 = load ptr, ptr %4, align 8, !tbaa !4
  %193 = getelementptr inbounds nuw %struct.jit_State, ptr %192, i32 0, i32 2
  %194 = load ptr, ptr %193, align 8, !tbaa !51
  %195 = load ptr, ptr %5, align 8, !tbaa !90
  %196 = getelementptr inbounds nuw %struct.RecordIndex, ptr %195, i32 0, i32 2
  %197 = load ptr, ptr %5, align 8, !tbaa !90
  %198 = getelementptr inbounds nuw %struct.RecordIndex, ptr %197, i32 0, i32 0
  call void @copyTV(ptr noundef %194, ptr noundef %196, ptr noundef %198)
  %199 = load i32, ptr %6, align 4, !tbaa !9
  %200 = xor i32 %199, 3
  store i32 %200, ptr %6, align 4, !tbaa !9
  store i32 0, ptr %13, align 4
  br label %201

201:                                              ; preds = %162, %161, %154
  call void @llvm.lifetime.end.p0(i64 4, ptr %7) #9
  %202 = load i32, ptr %13, align 4
  switch i32 %202, label %205 [
    i32 0, label %203
    i32 1, label %204
    i32 3, label %204
  ]

203:                                              ; preds = %201
  br label %26

204:                                              ; preds = %201, %201
  ret void

205:                                              ; preds = %201
  unreachable
}