; Function Attrs: nounwind uwtable
define internal fastcc void @rec_mm_comp(ptr noundef %0, ptr noundef nonnull initializes((0, 8), (48, 52), (60, 64)) %1, i32 noundef range(i32 0, 256) %2) unnamed_addr #0 {
  %4 = alloca %union.TValue, align 8
  %5 = getelementptr inbounds nuw i8, ptr %1, i64 56
  %6 = load i32, ptr %5, align 8, !tbaa !83
  %7 = getelementptr inbounds nuw i8, ptr %1, i64 48
  store i32 %6, ptr %7, align 8, !tbaa !49
  %8 = getelementptr inbounds nuw i8, ptr %1, i64 16
  %9 = load i64, ptr %8, align 8, !tbaa !4
  store i64 %9, ptr %1, align 8, !tbaa !4
  %10 = getelementptr inbounds nuw i8, ptr %1, i64 64
  %11 = getelementptr inbounds nuw i8, ptr %1, i64 24
  %12 = getelementptr inbounds nuw i8, ptr %1, i64 8
  %13 = getelementptr inbounds nuw i8, ptr %1, i64 32
  %14 = getelementptr inbounds nuw i8, ptr %1, i64 52
  br label %15

15:                                               ; preds = %57, %3
  %.066 = phi i32 [ %2, %3 ], [ %62, %57 ]
  %16 = and i32 %.066, 2
  %.not = icmp eq i32 %16, 0
  %17 = select i1 %.not, i32 6, i32 7
  %18 = call i32 @lj_record_mm_lookup(ptr noundef %0, ptr noundef nonnull %1, i32 noundef %17)
  %.not68 = icmp eq i32 %18, 0
  br i1 %.not68, label %56, label %19

19:                                               ; preds = %15
  %20 = load i32, ptr %10, align 8, !tbaa !52
  call void @llvm.lifetime.start.p0(i64 8, ptr nonnull %4) #8
  %21 = load i64, ptr %11, align 8, !tbaa !4
  store i64 %21, ptr %4, align 8, !tbaa !4
  %22 = load i64, ptr %12, align 8, !tbaa !4
  %.mask = and i64 %22, -140737488355328
  switch i64 %.mask, label %.thread [
    i64 -1688849860263936, label %23
    i64 -1829587348619264, label %31
  ]

23:                                               ; preds = %19
  %24 = and i64 %22, 140737488355327
  %25 = inttoptr i64 %24 to ptr
  %26 = getelementptr inbounds nuw i8, ptr %25, i64 32
  %27 = load i64, ptr %26, align 8, !tbaa !4
  %28 = inttoptr i64 %27 to ptr
  %29 = load ptr, ptr %13, align 8, !tbaa !81
  %30 = icmp eq ptr %29, %28
  br i1 %30, label %.thread72.sink.split, label %.thread

31:                                               ; preds = %19
  %32 = and i64 %22, 140737488355327
  %33 = inttoptr i64 %32 to ptr
  %34 = getelementptr inbounds nuw i8, ptr %33, i64 32
  %35 = load i64, ptr %34, align 8, !tbaa !4
  %36 = inttoptr i64 %35 to ptr
  %37 = load ptr, ptr %13, align 8, !tbaa !81
  %38 = icmp eq ptr %37, %36
  br i1 %38, label %.thread72.sink.split, label %.thread

.thread:                                          ; preds = %19, %23, %31
  %39 = load i32, ptr %14, align 4, !tbaa !82
  store i32 %39, ptr %7, align 8, !tbaa !49
  store i64 %22, ptr %1, align 8, !tbaa !4
  %40 = call i32 @lj_record_mm_lookup(ptr noundef %0, ptr noundef nonnull %1, i32 noundef %17)
  %.not70 = icmp eq i32 %40, 0
  br i1 %.not70, label %55, label %41

41:                                               ; preds = %.thread
  %42 = load i32, ptr %10, align 8, !tbaa !52
  %43 = call i32 @lj_record_objcmp(ptr noundef %0, i32 noundef %20, i32 noundef %42, ptr noundef nonnull %4, ptr noundef nonnull %11)
  %.not71 = icmp eq i32 %43, 0
  br i1 %.not71, label %.thread72, label %55

.thread72.sink.split:                             ; preds = %31, %23
  %.sink = phi i16 [ 5, %23 ], [ 11, %31 ]
  %44 = load i32, ptr %14, align 4, !tbaa !82
  %45 = trunc i32 %44 to i16
  %46 = getelementptr inbounds nuw i8, ptr %0, i64 184
  %47 = getelementptr inbounds nuw i8, ptr %0, i64 188
  store i16 17675, ptr %47, align 4, !tbaa !4
  store i16 %45, ptr %46, align 8, !tbaa !4
  %48 = getelementptr inbounds nuw i8, ptr %0, i64 186
  store i16 %.sink, ptr %48, align 2, !tbaa !4
  %49 = call i32 @lj_opt_fold(ptr noundef %0) #8
  %50 = trunc i32 %49 to i16
  %51 = getelementptr inbounds nuw i8, ptr %1, i64 60
  %52 = load i32, ptr %51, align 4, !tbaa !80
  %53 = trunc i32 %52 to i16
  store i16 2187, ptr %47, align 4, !tbaa !4
  store i16 %50, ptr %46, align 8, !tbaa !4
  store i16 %53, ptr %48, align 2, !tbaa !4
  %54 = call i32 @lj_opt_fold(ptr noundef %0) #8
  br label %.thread72

.thread72:                                        ; preds = %41, %.thread72.sink.split
  call fastcc void @rec_mm_callcomp(ptr noundef %0, ptr noundef %1, i32 noundef %.066)
  call void @llvm.lifetime.end.p0(i64 8, ptr nonnull %4) #8
  br label %.loopexit

55:                                               ; preds = %.thread, %41
  call void @llvm.lifetime.end.p0(i64 8, ptr nonnull %4) #8
  br i1 %.not, label %.loopexit, label %57

56:                                               ; preds = %15
  br i1 %.not, label %.loopexit, label %57

57:                                               ; preds = %56, %55
  %58 = load i32, ptr %14, align 4, !tbaa !82
  store i32 %58, ptr %7, align 8, !tbaa !49
  %59 = load i32, ptr %5, align 8, !tbaa !83
  store i32 %59, ptr %14, align 4, !tbaa !82
  store i32 %58, ptr %5, align 8, !tbaa !83
  %60 = load i64, ptr %12, align 8, !tbaa !4
  store i64 %60, ptr %1, align 8, !tbaa !4
  %61 = load i64, ptr %8, align 8, !tbaa !4
  store i64 %61, ptr %12, align 8, !tbaa !4
  store i64 %60, ptr %8, align 8, !tbaa !4
  %62 = xor i32 %.066, 3
  br label %15

.loopexit:                                        ; preds = %55, %56, %.thread72
  ret void
}